target datalayout = "e-m:e-p270:32:32-p271:32:32-p272:64:64-i64:64-i128:128-f80:128-n8:16:32:64-S128"
target triple = "x86_64-pc-linux-gnu"

%"class.nix::PosIdx" = type { i32 }
%"struct.nix::FetchTreeParams" = type { i8, i8, i8 }

; Function Attrs: mustprogress uwtable
define internal void @_ZN3nixL14prim_fetchTreeERNS_9EvalStateENS_6PosIdxEPPNS_5ValueERS3_(ptr noundef nonnull align 8 dereferenceable(1248) %0, i32 %1, ptr noundef %2, ptr noundef nonnull align 8 dereferenceable(24) %3) #5 {
  %5 = alloca %"class.nix::PosIdx", align 4
  %6 = alloca ptr, align 8
  %7 = alloca ptr, align 8
  %8 = alloca ptr, align 8
  %9 = alloca %"class.nix::PosIdx", align 4
  %10 = alloca %"struct.nix::FetchTreeParams", align 1
  %11 = getelementptr inbounds %"class.nix::PosIdx", ptr %5, i32 0, i32 0
  store i32 %1, ptr %11, align 4
  store ptr %0, ptr %6, align 8
  store ptr %2, ptr %7, align 8
  store ptr %3, ptr %8, align 8
  %12 = load ptr, ptr %6, align 8
  call void @llvm.memcpy.p0.p0.i64(ptr align 4 %9, ptr align 4 %5, i64 4, i1 false)
  %13 = load ptr, ptr %7, align 8
  %14 = load ptr, ptr %8, align 8
  %15 = getelementptr inbounds %"struct.nix::FetchTreeParams", ptr %10, i32 0, i32 0
  store i8 0, ptr %15, align 1
  %16 = getelementptr inbounds %"struct.nix::FetchTreeParams", ptr %10, i32 0, i32 1
  store i8 0, ptr %16, align 1
  %17 = getelementptr inbounds %"struct.nix::FetchTreeParams", ptr %10, i32 0, i32 2
  store i8 0, ptr %17, align 1
  %18 = getelementptr inbounds %"class.nix::PosIdx", ptr %9, i32 0, i32 0
  %19 = load i32, ptr %18, align 4
  call void @_ZN3nixL9fetchTreeERNS_9EvalStateENS_6PosIdxEPPNS_5ValueERS3_RKNS_15FetchTreeParamsE(ptr noundef nonnull align 8 dereferenceable(1248) %12, i32 %19, ptr noundef %13, ptr noundef nonnull align 8 dereferenceable(24) %14, ptr noundef nonnull align 1 dereferenceable(3) %10)
  ret void
}